; Function Attrs: mustprogress nofree norecurse nosync nounwind willreturn memory(argmem: readwrite) uwtable
define dso_local void @archive_entry_set_atime(ptr noundef captures(none) initializes((16, 20), (24, 36)) %0, i64 noundef %1, i64 noundef %2) local_unnamed_addr #7 {
  %4 = sdiv i64 %2, 1000000000
  %5 = add nsw i64 %4, %1
  %6 = srem i64 %2, 1000000000
  %7 = icmp slt i64 %6, 0
  %8 = add nsw i64 %6, 1000000000
  %.lobit = ashr i64 %6, 63
  %.011 = add nsw i64 %5, %.lobit
  %.0 = select i1 %7, i64 %8, i64 %6
  %9 = getelementptr inbounds nuw i8, ptr %0, i64 16
  store i32 0, ptr %9, align 8, !tbaa !78
  %10 = getelementptr inbounds nuw i8, ptr %0, i64 192
  %11 = load i32, ptr %10, align 8, !tbaa !31
  %12 = or i32 %11, 4
  store i32 %12, ptr %10, align 8, !tbaa !31
  %13 = getelementptr inbounds nuw i8, ptr %0, i64 24
  store i64 %.011, ptr %13, align 8, !tbaa !46
  %14 = trunc nuw nsw i64 %.0 to i32
  %15 = getelementptr inbounds nuw i8, ptr %0, i64 32
  store i32 %14, ptr %15, align 8, !tbaa !47
  ret void
}